target datalayout = "e-m:e-p270:32:32-p271:32:32-p272:64:64-i64:64-i128:128-f80:128-n8:16:32:64-S128"
target triple = "x86_64-pc-linux-gnu"

%struct.PageHeaderData = type { %struct.PageXLogRecPtr, i16, i16, i16, i16, i16, i16, i32, [0 x %struct.ItemIdData] }
%struct.PageXLogRecPtr = type { i32, i32 }
%struct.ItemIdData = type { i32 }
%struct.HashPageOpaqueData = type { i32, i32, i32, i16, i16 }

@LocalBufferBlockPointers = external global ptr, align 8
@BufferBlocks = external global ptr, align 8

; Function Attrs: inlinehint nounwind uwtable
define internal ptr @BufferGetBlock(i32 noundef %0) #4 {
  %2 = alloca ptr, align 8
  %3 = alloca i32, align 4
  store i32 %0, ptr %3, align 4
  %4 = load i32, ptr %3, align 4
  %5 = icmp slt i32 %4, 0
  br i1 %5, label %6, label %14

6:                                                ; preds = %1
  %7 = load ptr, ptr @LocalBufferBlockPointers, align 8
  %8 = load i32, ptr %3, align 4
  %9 = sub i32 0, %8
  %10 = sub i32 %9, 1
  %11 = sext i32 %10 to i64
  %12 = getelementptr inbounds ptr, ptr %7, i64 %11
  %13 = load ptr, ptr %12, align 8
  store ptr %13, ptr %2, align 8
  br label %21

14:                                               ; preds = %1
  %15 = load ptr, ptr @BufferBlocks, align 8
  %16 = load i32, ptr %3, align 4
  %17 = sub i32 %16, 1
  %18 = sext i32 %17 to i64
  %19 = mul i64 %18, 8192
  %20 = getelementptr inbounds nuw i8, ptr %15, i64 %19
  store ptr %20, ptr %2, align 8
  br label %21

21:                                               ; preds = %14, %6
  %22 = load ptr, ptr %2, align 8
  ret ptr %22
}

; Function Attrs: inlinehint nounwind uwtable
define internal ptr @PageGetContents(ptr noundef %0) #4 {
  %2 = alloca ptr, align 8
  store ptr %0, ptr %2, align 8
  %3 = load ptr, ptr %2, align 8
  %4 = getelementptr inbounds nuw i8, ptr %3, i64 24
  ret ptr %4
}

; Function Attrs: inlinehint nounwind uwtable
define internal void @PageValidateSpecialPointer(ptr noundef %0) #4 {
  %2 = alloca ptr, align 8
  store ptr %0, ptr %2, align 8
  ret void
}

; Function Attrs: inlinehint nounwind uwtable
define internal i64 @BufferGetPageSize(i32 noundef %0) #4 {
  %2 = alloca i32, align 4
  store i32 %0, ptr %2, align 4
  ret i64 8192
}

; Function Attrs: inlinehint nounwind uwtable
define internal ptr @BufferGetPage(i32 noundef %0) #4 {
  %2 = alloca i32, align 4
  store i32 %0, ptr %2, align 4
  %3 = load i32, ptr %2, align 4
  %4 = call ptr @BufferGetBlock(i32 noundef %3)
  ret ptr %4
}

; Function Attrs: nounwind uwtable
define dso_local void @_hash_initbitmapbuffer(i32 noundef %0, i16 noundef zeroext %1, i1 noundef zeroext %2) #0 {
  %4 = alloca i32, align 4
  %5 = alloca i16, align 2
  %6 = alloca i8, align 1
  %7 = alloca ptr, align 8
  %8 = alloca ptr, align 8
  %9 = alloca ptr, align 8
  store i32 %0, ptr %4, align 4
  store i16 %1, ptr %5, align 2
  %10 = zext i1 %2 to i8
  store i8 %10, ptr %6, align 1
  call void @llvm.lifetime.start.p0(i64 8, ptr %7) #6
  call void @llvm.lifetime.start.p0(i64 8, ptr %8) #6
  call void @llvm.lifetime.start.p0(i64 8, ptr %9) #6
  %11 = load i32, ptr %4, align 4
  %12 = call ptr @BufferGetPage(i32 noundef %11)
  store ptr %12, ptr %7, align 8
  %13 = load i8, ptr %6, align 1, !range !6, !noundef !7
  %14 = trunc i8 %13 to i1
  br i1 %14, label %15, label %19

15:                                               ; preds = %3
  %16 = load ptr, ptr %7, align 8
  %17 = load i32, ptr %4, align 4
  %18 = call i64 @BufferGetPageSize(i32 noundef %17)
  call void @_hash_pageinit(ptr noundef %16, i64 noundef %18)
  br label %19

19:                                               ; preds = %15, %3
  %20 = load ptr, ptr %7, align 8
  call void @PageValidateSpecialPointer(ptr noundef %20)
  %21 = load ptr, ptr %7, align 8
  %22 = load ptr, ptr %7, align 8
  %23 = getelementptr inbounds nuw %struct.PageHeaderData, ptr %22, i32 0, i32 5
  %24 = load i16, ptr %23, align 4
  %25 = zext i16 %24 to i32
  %26 = sext i32 %25 to i64
  %27 = getelementptr inbounds i8, ptr %21, i64 %26
  store ptr %27, ptr %8, align 8
  %28 = load ptr, ptr %8, align 8
  %29 = getelementptr inbounds nuw %struct.HashPageOpaqueData, ptr %28, i32 0, i32 0
  store i32 -1, ptr %29, align 4
  %30 = load ptr, ptr %8, align 8
  %31 = getelementptr inbounds nuw %struct.HashPageOpaqueData, ptr %30, i32 0, i32 1
  store i32 -1, ptr %31, align 4
  %32 = load ptr, ptr %8, align 8
  %33 = getelementptr inbounds nuw %struct.HashPageOpaqueData, ptr %32, i32 0, i32 2
  store i32 -1, ptr %33, align 4
  %34 = load ptr, ptr %8, align 8
  %35 = getelementptr inbounds nuw %struct.HashPageOpaqueData, ptr %34, i32 0, i32 3
  store i16 4, ptr %35, align 4
  %36 = load ptr, ptr %8, align 8
  %37 = getelementptr inbounds nuw %struct.HashPageOpaqueData, ptr %36, i32 0, i32 4
  store i16 -128, ptr %37, align 2
  %38 = load ptr, ptr %7, align 8
  %39 = call ptr @PageGetContents(ptr noundef %38)
  store ptr %39, ptr %9, align 8
  %40 = load ptr, ptr %9, align 8
  %41 = load i16, ptr %5, align 2
  %42 = zext i16 %41 to i64
  call void @llvm.memset.p0.i64(ptr align 4 %40, i8 -1, i64 %42, i1 false)
  %43 = load ptr, ptr %9, align 8
  %44 = load i16, ptr %5, align 2
  %45 = zext i16 %44 to i32
  %46 = sext i32 %45 to i64
  %47 = getelementptr inbounds i8, ptr %43, i64 %46
  %48 = load ptr, ptr %7, align 8
  %49 = ptrtoint ptr %47 to i64
  %50 = ptrtoint ptr %48 to i64
  %51 = sub i64 %49, %50
  %52 = trunc i64 %51 to i16
  %53 = load ptr, ptr %7, align 8
  %54 = getelementptr inbounds nuw %struct.PageHeaderData, ptr %53, i32 0, i32 3
  store i16 %52, ptr %54, align 4
  call void @llvm.lifetime.end.p0(i64 8, ptr %9) #6
  call void @llvm.lifetime.end.p0(i64 8, ptr %8) #6
  call void @llvm.lifetime.end.p0(i64 8, ptr %7) #6
  ret void
}