; Function Attrs: nounwind uwtable
define dso_local void @_hash_initbitmapbuffer(i32 noundef %0, i16 noundef zeroext %1, i1 noundef zeroext %2) local_unnamed_addr #0 {
  %4 = icmp slt i32 %0, 0
  br i1 %4, label %5, label %11

5:                                                ; preds = %3
  %6 = load ptr, ptr @LocalBufferBlockPointers, align 8
  %7 = xor i32 %0, -1
  %8 = zext nneg i32 %7 to i64
  %9 = getelementptr inbounds nuw ptr, ptr %6, i64 %8
  %10 = load ptr, ptr %9, align 8
  br label %BufferGetPage.exit

11:                                               ; preds = %3
  %12 = load ptr, ptr @BufferBlocks, align 8
  %13 = add nsw i32 %0, -1
  %14 = sext i32 %13 to i64
  %15 = shl nsw i64 %14, 13
  %16 = getelementptr inbounds nuw i8, ptr %12, i64 %15
  br label %BufferGetPage.exit

BufferGetPage.exit:                               ; preds = %5, %11
  %.0.i.i = phi ptr [ %10, %5 ], [ %16, %11 ]
  br i1 %2, label %17, label %18

17:                                               ; preds = %BufferGetPage.exit
  tail call void @_hash_pageinit(ptr noundef %.0.i.i, i64 noundef 8192) #7
  br label %18

18:                                               ; preds = %17, %BufferGetPage.exit
  %19 = getelementptr inbounds nuw i8, ptr %.0.i.i, i64 16
  %20 = load i16, ptr %19, align 4
  %21 = zext i16 %20 to i64
  %22 = getelementptr inbounds nuw i8, ptr %.0.i.i, i64 %21
  store i32 -1, ptr %22, align 4
  %23 = getelementptr inbounds nuw i8, ptr %22, i64 4
  store i32 -1, ptr %23, align 4
  %24 = getelementptr inbounds nuw i8, ptr %22, i64 8
  store i32 -1, ptr %24, align 4
  %25 = getelementptr inbounds nuw i8, ptr %22, i64 12
  store i16 4, ptr %25, align 4
  %26 = getelementptr inbounds nuw i8, ptr %22, i64 14
  store i16 -128, ptr %26, align 2
  %27 = getelementptr inbounds nuw i8, ptr %.0.i.i, i64 24
  %28 = zext i16 %1 to i64
  tail call void @llvm.memset.p0.i64(ptr nonnull align 4 %27, i8 -1, i64 %28, i1 false)
  %29 = getelementptr inbounds nuw i8, ptr %27, i64 %28
  %30 = ptrtoint ptr %29 to i64
  %31 = ptrtoint ptr %.0.i.i to i64
  %32 = sub i64 %30, %31
  %33 = trunc i64 %32 to i16
  %34 = getelementptr inbounds nuw i8, ptr %.0.i.i, i64 12
  store i16 %33, ptr %34, align 4
  ret void
}